
darksocv.o:     formato de ficheiro elf32-littleriscv


Desmontagem da secção .text:

00000000 <_boot>:
   0:	00002517          	auipc	a0,0x2
   4:	ae450513          	addi	a0,a0,-1308 # 1ae4 <threads>
   8:	00052583          	lw	a1,0(a0)
   c:	00158613          	addi	a2,a1,1
  10:	00c52023          	sw	a2,0(a0)
  14:	80000697          	auipc	a3,0x80000
  18:	fec68693          	addi	a3,a3,-20 # 80000000 <io+0x0>
  1c:	04059263          	bnez	a1,60 <_multi_thread_boot>

00000020 <_normal_boot>:
  20:	00002117          	auipc	sp,0x2
  24:	fe010113          	addi	sp,sp,-32 # 2000 <_stack>
  28:	00002197          	auipc	gp,0x2
  2c:	2b518193          	addi	gp,gp,693 # 22dd <_global>
  30:	615000ef          	jal	ra,e44 <banner>
  34:	00002697          	auipc	a3,0x2
  38:	fcc68693          	addi	a3,a3,-52 # 2000 <_stack>
  3c:	00002617          	auipc	a2,0x2
  40:	ab060613          	addi	a2,a2,-1360 # 1aec <_heap>
  44:	40c68733          	sub	a4,a3,a2
  48:	00000593          	li	a1,0
  4c:	00002517          	auipc	a0,0x2
  50:	a6050513          	addi	a0,a0,-1440 # 1aac <_boot0msg>
  54:	64c000ef          	jal	ra,6a0 <printf>
  58:	6d1000ef          	jal	ra,f28 <main>
  5c:	fc5ff06f          	j	20 <_normal_boot>

00000060 <_multi_thread_boot>:
  60:	00b69523          	sh	a1,10(a3)
  64:	00158593          	addi	a1,a1,1
  68:	ff9ff06f          	j	60 <_multi_thread_boot>

0000006c <check4rv32i>:
  6c:	00000793          	li	a5,0
  70:	00100f93          	li	t6,1
  74:	40ff8533          	sub	a0,t6,a5
  78:	00008067          	ret

0000007c <board_name>:
  7c:	00900793          	li	a5,9
  80:	00a7ee63          	bltu	a5,a0,9c <board_name+0x20>
  84:	00001797          	auipc	a5,0x1
  88:	00251513          	slli	a0,a0,0x2
  8c:	5c478793          	addi	a5,a5,1476 # 1648 <CSWTCH.11>
  90:	00a787b3          	add	a5,a5,a0
  94:	0007a503          	lw	a0,0(a5)
  98:	00008067          	ret
  9c:	00001517          	auipc	a0,0x1
  a0:	4cc50513          	addi	a0,a0,1228 # 1568 <main+0x640>
  a4:	00008067          	ret

000000a8 <_idle>:
  a8:	80000797          	auipc	a5,0x80000
  ac:	f5878793          	addi	a5,a5,-168 # 80000000 <io+0x0>
  b0:	0037c783          	lbu	a5,3(a5)
  b4:	01879793          	slli	a5,a5,0x18
  b8:	4187d793          	srai	a5,a5,0x18
  bc:	0007c463          	bltz	a5,c4 <_idle+0x1c>
  c0:	00008067          	ret
  c4:	00002797          	auipc	a5,0x2
  c8:	a1c7a783          	lw	a5,-1508(a5) # 1ae0 <utimers>
  cc:	00002717          	auipc	a4,0x2
  d0:	fff78693          	addi	a3,a5,-1
  d4:	a0d72a23          	sw	a3,-1516(a4) # 1ae0 <utimers>
  d8:	02079c63          	bnez	a5,110 <_idle+0x68>
  dc:	80000797          	auipc	a5,0x80000
  e0:	f2478793          	addi	a5,a5,-220 # 80000000 <io+0x0>
  e4:	0087d783          	lhu	a5,8(a5)
  e8:	80000717          	auipc	a4,0x80000
  ec:	f1870713          	addi	a4,a4,-232 # 80000000 <io+0x0>
  f0:	00178793          	addi	a5,a5,1
  f4:	01079793          	slli	a5,a5,0x10
  f8:	0107d793          	srli	a5,a5,0x10
  fc:	00f71423          	sh	a5,8(a4)
 100:	000f4737          	lui	a4,0xf4
 104:	00002797          	auipc	a5,0x2
 108:	23f70713          	addi	a4,a4,575 # f423f <_global+0xf1f62>
 10c:	9ce7ae23          	sw	a4,-1572(a5) # 1ae0 <utimers>
 110:	80000797          	auipc	a5,0x80000
 114:	ef078793          	addi	a5,a5,-272 # 80000000 <io+0x0>
 118:	f8000713          	li	a4,-128
 11c:	00e781a3          	sb	a4,3(a5)
 120:	00008067          	ret

00000124 <getchar>:
 124:	000f48b7          	lui	a7,0xf4
 128:	23f88893          	addi	a7,a7,575 # f423f <_global+0xf1f62>
 12c:	f8000813          	li	a6,-128
 130:	80000797          	auipc	a5,0x80000
 134:	ed078793          	addi	a5,a5,-304 # 80000000 <io+0x0>
 138:	0047c783          	lbu	a5,4(a5)
 13c:	80000717          	auipc	a4,0x80000
 140:	ec470713          	addi	a4,a4,-316 # 80000000 <io+0x0>
 144:	0027f793          	andi	a5,a5,2
 148:	06079463          	bnez	a5,1b0 <getchar+0x8c>
 14c:	00374783          	lbu	a5,3(a4)
 150:	80000717          	auipc	a4,0x80000
 154:	eb070713          	addi	a4,a4,-336 # 80000000 <io+0x0>
 158:	01879793          	slli	a5,a5,0x18
 15c:	4187d793          	srai	a5,a5,0x18
 160:	fc07d8e3          	bgez	a5,130 <getchar+0xc>
 164:	80000797          	auipc	a5,0x80000
 168:	e9c78693          	addi	a3,a5,-356 # 80000000 <io+0x0>
 16c:	00002797          	auipc	a5,0x2
 170:	9747a603          	lw	a2,-1676(a5) # 1ae0 <utimers>
 174:	00002597          	auipc	a1,0x2
 178:	80000797          	auipc	a5,0x80000
 17c:	fff60513          	addi	a0,a2,-1
 180:	96a5a623          	sw	a0,-1684(a1) # 1ae0 <utimers>
 184:	e8878793          	addi	a5,a5,-376 # 80000000 <io+0x0>
 188:	02061063          	bnez	a2,1a8 <getchar+0x84>
 18c:	0086d683          	lhu	a3,8(a3)
 190:	00168693          	addi	a3,a3,1
 194:	01069693          	slli	a3,a3,0x10
 198:	0106d693          	srli	a3,a3,0x10
 19c:	00d79423          	sh	a3,8(a5)
 1a0:	00002797          	auipc	a5,0x2
 1a4:	9517a023          	sw	a7,-1728(a5) # 1ae0 <utimers>
 1a8:	010701a3          	sb	a6,3(a4)
 1ac:	f85ff06f          	j	130 <getchar+0xc>
 1b0:	80000797          	auipc	a5,0x80000
 1b4:	e5078793          	addi	a5,a5,-432 # 80000000 <io+0x0>
 1b8:	0057c503          	lbu	a0,5(a5)
 1bc:	0ff57513          	zext.b	a0,a0
 1c0:	00008067          	ret

000001c4 <putchar>:
 1c4:	00a00793          	li	a5,10
 1c8:	0af50463          	beq	a0,a5,270 <putchar+0xac>
 1cc:	000f4337          	lui	t1,0xf4
 1d0:	23f30313          	addi	t1,t1,575 # f423f <_global+0xf1f62>
 1d4:	f8000893          	li	a7,-128
 1d8:	80000797          	auipc	a5,0x80000
 1dc:	e2878793          	addi	a5,a5,-472 # 80000000 <io+0x0>
 1e0:	0047c783          	lbu	a5,4(a5)
 1e4:	80000717          	auipc	a4,0x80000
 1e8:	e1c70713          	addi	a4,a4,-484 # 80000000 <io+0x0>
 1ec:	0017f793          	andi	a5,a5,1
 1f0:	06078463          	beqz	a5,258 <putchar+0x94>
 1f4:	00374783          	lbu	a5,3(a4)
 1f8:	80000717          	auipc	a4,0x80000
 1fc:	e0870713          	addi	a4,a4,-504 # 80000000 <io+0x0>
 200:	01879793          	slli	a5,a5,0x18
 204:	4187d793          	srai	a5,a5,0x18
 208:	fc07d8e3          	bgez	a5,1d8 <putchar+0x14>
 20c:	80000797          	auipc	a5,0x80000
 210:	df478693          	addi	a3,a5,-524 # 80000000 <io+0x0>
 214:	00002797          	auipc	a5,0x2
 218:	8cc7a603          	lw	a2,-1844(a5) # 1ae0 <utimers>
 21c:	00002597          	auipc	a1,0x2
 220:	80000797          	auipc	a5,0x80000
 224:	fff60813          	addi	a6,a2,-1
 228:	8d05a223          	sw	a6,-1852(a1) # 1ae0 <utimers>
 22c:	de078793          	addi	a5,a5,-544 # 80000000 <io+0x0>
 230:	02061063          	bnez	a2,250 <putchar+0x8c>
 234:	0086d683          	lhu	a3,8(a3)
 238:	00168693          	addi	a3,a3,1
 23c:	01069693          	slli	a3,a3,0x10
 240:	0106d693          	srli	a3,a3,0x10
 244:	00d79423          	sh	a3,8(a5)
 248:	00002797          	auipc	a5,0x2
 24c:	8867ac23          	sw	t1,-1896(a5) # 1ae0 <utimers>
 250:	011701a3          	sb	a7,3(a4)
 254:	f85ff06f          	j	1d8 <putchar+0x14>
 258:	80000797          	auipc	a5,0x80000
 25c:	0ff57713          	zext.b	a4,a0
 260:	da878793          	addi	a5,a5,-600 # 80000000 <io+0x0>
 264:	00e782a3          	sb	a4,5(a5)
 268:	00070513          	mv	a0,a4
 26c:	00008067          	ret
 270:	000f4337          	lui	t1,0xf4
 274:	23f30313          	addi	t1,t1,575 # f423f <_global+0xf1f62>
 278:	f8000893          	li	a7,-128
 27c:	80000797          	auipc	a5,0x80000
 280:	d8478793          	addi	a5,a5,-636 # 80000000 <io+0x0>
 284:	0047c783          	lbu	a5,4(a5)
 288:	80000717          	auipc	a4,0x80000
 28c:	d7870713          	addi	a4,a4,-648 # 80000000 <io+0x0>
 290:	0017f793          	andi	a5,a5,1
 294:	06078463          	beqz	a5,2fc <putchar+0x138>
 298:	00374783          	lbu	a5,3(a4)
 29c:	80000717          	auipc	a4,0x80000
 2a0:	d6470713          	addi	a4,a4,-668 # 80000000 <io+0x0>
 2a4:	01879793          	slli	a5,a5,0x18
 2a8:	4187d793          	srai	a5,a5,0x18
 2ac:	fc07d8e3          	bgez	a5,27c <putchar+0xb8>
 2b0:	80000797          	auipc	a5,0x80000
 2b4:	d5078693          	addi	a3,a5,-688 # 80000000 <io+0x0>
 2b8:	00002797          	auipc	a5,0x2
 2bc:	8287a603          	lw	a2,-2008(a5) # 1ae0 <utimers>
 2c0:	00002597          	auipc	a1,0x2
 2c4:	80000797          	auipc	a5,0x80000
 2c8:	fff60813          	addi	a6,a2,-1
 2cc:	8305a023          	sw	a6,-2016(a1) # 1ae0 <utimers>
 2d0:	d3c78793          	addi	a5,a5,-708 # 80000000 <io+0x0>
 2d4:	02061063          	bnez	a2,2f4 <putchar+0x130>
 2d8:	0086d683          	lhu	a3,8(a3)
 2dc:	00168693          	addi	a3,a3,1
 2e0:	01069693          	slli	a3,a3,0x10
 2e4:	0106d693          	srli	a3,a3,0x10
 2e8:	00d79423          	sh	a3,8(a5)
 2ec:	00001797          	auipc	a5,0x1
 2f0:	7e67aa23          	sw	t1,2036(a5) # 1ae0 <utimers>
 2f4:	011701a3          	sb	a7,3(a4)
 2f8:	f85ff06f          	j	27c <putchar+0xb8>
 2fc:	80000797          	auipc	a5,0x80000
 300:	d0478793          	addi	a5,a5,-764 # 80000000 <io+0x0>
 304:	00d00713          	li	a4,13
 308:	00e782a3          	sb	a4,5(a5)
 30c:	ec1ff06f          	j	1cc <putchar+0x8>

00000310 <gets>:
 310:	fe810113          	addi	sp,sp,-24
 314:	00812823          	sw	s0,16(sp)
 318:	00912623          	sw	s1,12(sp)
 31c:	00112a23          	sw	ra,20(sp)
 320:	00b12223          	sw	a1,4(sp)
 324:	00a12423          	sw	a0,8(sp)
 328:	fff58413          	addi	s0,a1,-1
 32c:	00050493          	mv	s1,a0
 330:	12040c63          	beqz	s0,468 <gets+0x158>
 334:	000f47b7          	lui	a5,0xf4
 338:	23f78e13          	addi	t3,a5,575 # f423f <_global+0xf1f62>
 33c:	f8000813          	li	a6,-128
 340:	80000797          	auipc	a5,0x80000
 344:	cc078793          	addi	a5,a5,-832 # 80000000 <io+0x0>
 348:	0047c783          	lbu	a5,4(a5)
 34c:	80000717          	auipc	a4,0x80000
 350:	cb470713          	addi	a4,a4,-844 # 80000000 <io+0x0>
 354:	0027f793          	andi	a5,a5,2
 358:	06079463          	bnez	a5,3c0 <gets+0xb0>
 35c:	00374783          	lbu	a5,3(a4)
 360:	80000717          	auipc	a4,0x80000
 364:	ca070713          	addi	a4,a4,-864 # 80000000 <io+0x0>
 368:	01879793          	slli	a5,a5,0x18
 36c:	4187d793          	srai	a5,a5,0x18
 370:	fc07d8e3          	bgez	a5,340 <gets+0x30>
 374:	80000797          	auipc	a5,0x80000
 378:	c8c78693          	addi	a3,a5,-884 # 80000000 <io+0x0>
 37c:	00001797          	auipc	a5,0x1
 380:	7647a603          	lw	a2,1892(a5) # 1ae0 <utimers>
 384:	00001597          	auipc	a1,0x1
 388:	80000797          	auipc	a5,0x80000
 38c:	fff60513          	addi	a0,a2,-1
 390:	74a5ae23          	sw	a0,1884(a1) # 1ae0 <utimers>
 394:	c7878793          	addi	a5,a5,-904 # 80000000 <io+0x0>
 398:	02061063          	bnez	a2,3b8 <gets+0xa8>
 39c:	0086d683          	lhu	a3,8(a3)
 3a0:	00168693          	addi	a3,a3,1
 3a4:	01069693          	slli	a3,a3,0x10
 3a8:	0106d693          	srli	a3,a3,0x10
 3ac:	00d79423          	sh	a3,8(a5)
 3b0:	00001797          	auipc	a5,0x1
 3b4:	73c7a823          	sw	t3,1840(a5) # 1ae0 <utimers>
 3b8:	010701a3          	sb	a6,3(a4)
 3bc:	f85ff06f          	j	340 <gets+0x30>
 3c0:	80000797          	auipc	a5,0x80000
 3c4:	c4078793          	addi	a5,a5,-960 # 80000000 <io+0x0>
 3c8:	0057c783          	lbu	a5,5(a5)
 3cc:	00a00713          	li	a4,10
 3d0:	0ff7f793          	zext.b	a5,a5
 3d4:	02e78e63          	beq	a5,a4,410 <gets+0x100>
 3d8:	00d00713          	li	a4,13
 3dc:	02e78a63          	beq	a5,a4,410 <gets+0x100>
 3e0:	00078513          	mv	a0,a5
 3e4:	00f12023          	sw	a5,0(sp)
 3e8:	dddff0ef          	jal	ra,1c4 <putchar>
 3ec:	00012783          	lw	a5,0(sp)
 3f0:	00800713          	li	a4,8
 3f4:	04e78c63          	beq	a5,a4,44c <gets+0x13c>
 3f8:	00f48023          	sb	a5,0(s1)
 3fc:	00812223          	sw	s0,4(sp)
 400:	00148493          	addi	s1,s1,1
 404:	00412783          	lw	a5,4(sp)
 408:	fff78413          	addi	s0,a5,-1
 40c:	f20414e3          	bnez	s0,334 <gets+0x24>
 410:	00a00513          	li	a0,10
 414:	db1ff0ef          	jal	ra,1c4 <putchar>
 418:	00812703          	lw	a4,8(sp)
 41c:	00048023          	sb	zero,0(s1)
 420:	409707b3          	sub	a5,a4,s1
 424:	00f037b3          	snez	a5,a5
 428:	40f007b3          	neg	a5,a5
 42c:	00f777b3          	and	a5,a4,a5
 430:	00f12423          	sw	a5,8(sp)
 434:	01412083          	lw	ra,20(sp)
 438:	01012403          	lw	s0,16(sp)
 43c:	00812503          	lw	a0,8(sp)
 440:	00c12483          	lw	s1,12(sp)
 444:	01810113          	addi	sp,sp,24
 448:	00008067          	ret
 44c:	00812783          	lw	a5,8(sp)
 450:	00978863          	beq	a5,s1,460 <gets+0x150>
 454:	fe048fa3          	sb	zero,-1(s1)
 458:	fff48493          	addi	s1,s1,-1
 45c:	fa9ff06f          	j	404 <gets+0xf4>
 460:	00812223          	sw	s0,4(sp)
 464:	fa1ff06f          	j	404 <gets+0xf4>
 468:	00a00513          	li	a0,10
 46c:	d59ff0ef          	jal	ra,1c4 <putchar>
 470:	00812783          	lw	a5,8(sp)
 474:	00012423          	sw	zero,8(sp)
 478:	00078023          	sb	zero,0(a5)
 47c:	fb9ff06f          	j	434 <gets+0x124>

00000480 <putstr>:
 480:	ff810113          	addi	sp,sp,-8
 484:	00112223          	sw	ra,4(sp)
 488:	00812023          	sw	s0,0(sp)
 48c:	02051a63          	bnez	a0,4c0 <putstr+0x40>
 490:	00001797          	auipc	a5,0x1
 494:	4b078793          	addi	a5,a5,1200 # 1940 <CSWTCH.11+0x2f8>
 498:	00078413          	mv	s0,a5
 49c:	00c0006f          	j	4a8 <putstr+0x28>
 4a0:	00140413          	addi	s0,s0,1
 4a4:	d21ff0ef          	jal	ra,1c4 <putchar>
 4a8:	00044503          	lbu	a0,0(s0)
 4ac:	fe051ae3          	bnez	a0,4a0 <putstr+0x20>
 4b0:	00412083          	lw	ra,4(sp)
 4b4:	00012403          	lw	s0,0(sp)
 4b8:	00810113          	addi	sp,sp,8
 4bc:	00008067          	ret
 4c0:	00050413          	mv	s0,a0
 4c4:	fe5ff06f          	j	4a8 <putstr+0x28>

000004c8 <puts>:
 4c8:	ff810113          	addi	sp,sp,-8
 4cc:	00112223          	sw	ra,4(sp)
 4d0:	00812023          	sw	s0,0(sp)
 4d4:	02051c63          	bnez	a0,50c <puts+0x44>
 4d8:	00001797          	auipc	a5,0x1
 4dc:	46878793          	addi	a5,a5,1128 # 1940 <CSWTCH.11+0x2f8>
 4e0:	00078413          	mv	s0,a5
 4e4:	00c0006f          	j	4f0 <puts+0x28>
 4e8:	00140413          	addi	s0,s0,1
 4ec:	cd9ff0ef          	jal	ra,1c4 <putchar>
 4f0:	00044503          	lbu	a0,0(s0)
 4f4:	fe051ae3          	bnez	a0,4e8 <puts+0x20>
 4f8:	00012403          	lw	s0,0(sp)
 4fc:	00412083          	lw	ra,4(sp)
 500:	00a00513          	li	a0,10
 504:	00810113          	addi	sp,sp,8
 508:	cbdff06f          	j	1c4 <putchar>
 50c:	00050413          	mv	s0,a0
 510:	fe1ff06f          	j	4f0 <puts+0x28>

00000514 <putdx>:
 514:	00001797          	auipc	a5,0x1
 518:	fa810113          	addi	sp,sp,-88
 51c:	44878793          	addi	a5,a5,1096 # 195c <CSWTCH.11+0x314>
 520:	02c7a803          	lw	a6,44(a5)
 524:	0007a983          	lw	s3,0(a5)
 528:	0047a903          	lw	s2,4(a5)
 52c:	00c7a383          	lw	t2,12(a5)
 530:	0107a283          	lw	t0,16(a5)
 534:	0147af83          	lw	t6,20(a5)
 538:	0187af03          	lw	t5,24(a5)
 53c:	01c7ae83          	lw	t4,28(a5)
 540:	0207ae03          	lw	t3,32(a5)
 544:	0247a303          	lw	t1,36(a5)
 548:	0287a883          	lw	a7,40(a5)
 54c:	04912623          	sw	s1,76(sp)
 550:	0087a483          	lw	s1,8(a5)
 554:	0387a703          	lw	a4,56(a5)
 558:	0347a683          	lw	a3,52(a5)
 55c:	0307a603          	lw	a2,48(a5)
 560:	03c7a783          	lw	a5,60(a5)
 564:	01012623          	sw	a6,12(sp)
 568:	04112a23          	sw	ra,84(sp)
 56c:	04812823          	sw	s0,80(sp)
 570:	00b12023          	sw	a1,0(sp)
 574:	03312023          	sw	s3,32(sp)
 578:	03212223          	sw	s2,36(sp)
 57c:	02912423          	sw	s1,40(sp)
 580:	02712623          	sw	t2,44(sp)
 584:	02512823          	sw	t0,48(sp)
 588:	03f12a23          	sw	t6,52(sp)
 58c:	03e12c23          	sw	t5,56(sp)
 590:	03d12e23          	sw	t4,60(sp)
 594:	05c12023          	sw	t3,64(sp)
 598:	04612223          	sw	t1,68(sp)
 59c:	05112423          	sw	a7,72(sp)
 5a0:	00c12823          	sw	a2,16(sp)
 5a4:	00e12c23          	sw	a4,24(sp)
 5a8:	00d12a23          	sw	a3,20(sp)
 5ac:	00f12e23          	sw	a5,28(sp)
 5b0:	00050813          	mv	a6,a0
 5b4:	00c10713          	addi	a4,sp,12
 5b8:	00058463          	beqz	a1,5c0 <putdx+0xac>
 5bc:	02010713          	addi	a4,sp,32
 5c0:	00072583          	lw	a1,0(a4)
 5c4:	0a058c63          	beqz	a1,67c <putdx+0x168>
 5c8:	00470493          	addi	s1,a4,4
 5cc:	01800413          	li	s0,24
 5d0:	03c0006f          	j	60c <putdx+0xf8>
 5d4:	01012223          	sw	a6,4(sp)
 5d8:	5a4000ef          	jal	ra,b7c <__udivsi3>
 5dc:	00a00593          	li	a1,10
 5e0:	5fc000ef          	jal	ra,bdc <__umodsi3>
 5e4:	00001797          	auipc	a5,0x1
 5e8:	36478793          	addi	a5,a5,868 # 1948 <CSWTCH.11+0x300>
 5ec:	00f50533          	add	a0,a0,a5
 5f0:	00054503          	lbu	a0,0(a0)
 5f4:	bd1ff0ef          	jal	ra,1c4 <putchar>
 5f8:	00412803          	lw	a6,4(sp)
 5fc:	0004a583          	lw	a1,0(s1)
 600:	ff840413          	addi	s0,s0,-8
 604:	00448493          	addi	s1,s1,4
 608:	06058a63          	beqz	a1,67c <putdx+0x168>
 60c:	00100793          	li	a5,1
 610:	00f58463          	beq	a1,a5,618 <putdx+0x104>
 614:	feb864e3          	bltu	a6,a1,5fc <putdx+0xe8>
 618:	00440793          	addi	a5,s0,4
 61c:	00012703          	lw	a4,0(sp)
 620:	00f857b3          	srl	a5,a6,a5
 624:	00001617          	auipc	a2,0x1
 628:	00f7f793          	andi	a5,a5,15
 62c:	32460613          	addi	a2,a2,804 # 1948 <CSWTCH.11+0x300>
 630:	00c787b3          	add	a5,a5,a2
 634:	00080513          	mv	a0,a6
 638:	f8071ee3          	bnez	a4,5d4 <putdx+0xc0>
 63c:	0007c503          	lbu	a0,0(a5)
 640:	00c12423          	sw	a2,8(sp)
 644:	01012223          	sw	a6,4(sp)
 648:	b7dff0ef          	jal	ra,1c4 <putchar>
 64c:	00412803          	lw	a6,4(sp)
 650:	00812603          	lw	a2,8(sp)
 654:	00448493          	addi	s1,s1,4
 658:	008857b3          	srl	a5,a6,s0
 65c:	00f7f793          	andi	a5,a5,15
 660:	00c787b3          	add	a5,a5,a2
 664:	0007c503          	lbu	a0,0(a5)
 668:	ff840413          	addi	s0,s0,-8
 66c:	b59ff0ef          	jal	ra,1c4 <putchar>
 670:	ffc4a583          	lw	a1,-4(s1)
 674:	00412803          	lw	a6,4(sp)
 678:	f8059ae3          	bnez	a1,60c <putdx+0xf8>
 67c:	05412083          	lw	ra,84(sp)
 680:	05012403          	lw	s0,80(sp)
 684:	04c12483          	lw	s1,76(sp)
 688:	05810113          	addi	sp,sp,88
 68c:	00008067          	ret

00000690 <putx>:
 690:	00000593          	li	a1,0
 694:	e81ff06f          	j	514 <putdx>

00000698 <putd>:
 698:	00100593          	li	a1,1
 69c:	e79ff06f          	j	514 <putdx>

000006a0 <printf>:
 6a0:	fdc10113          	addi	sp,sp,-36
 6a4:	00912223          	sw	s1,4(sp)
 6a8:	02f12023          	sw	a5,32(sp)
 6ac:	00112623          	sw	ra,12(sp)
 6b0:	00812423          	sw	s0,8(sp)
 6b4:	00b12823          	sw	a1,16(sp)
 6b8:	00c12a23          	sw	a2,20(sp)
 6bc:	00d12c23          	sw	a3,24(sp)
 6c0:	00e12e23          	sw	a4,28(sp)
 6c4:	00050493          	mv	s1,a0
 6c8:	00054503          	lbu	a0,0(a0)
 6cc:	01010793          	addi	a5,sp,16
 6d0:	00f12023          	sw	a5,0(sp)
 6d4:	02051a63          	bnez	a0,708 <printf+0x68>
 6d8:	0500006f          	j	728 <printf+0x88>
 6dc:	0014c503          	lbu	a0,1(s1)
 6e0:	07300713          	li	a4,115
 6e4:	06e50c63          	beq	a0,a4,75c <printf+0xbc>
 6e8:	07800713          	li	a4,120
 6ec:	0ae50663          	beq	a0,a4,798 <printf+0xf8>
 6f0:	06400713          	li	a4,100
 6f4:	04e50663          	beq	a0,a4,740 <printf+0xa0>
 6f8:	acdff0ef          	jal	ra,1c4 <putchar>
 6fc:	00144503          	lbu	a0,1(s0)
 700:	00140493          	addi	s1,s0,1
 704:	02050263          	beqz	a0,728 <printf+0x88>
 708:	02500793          	li	a5,37
 70c:	00148413          	addi	s0,s1,1
 710:	fcf506e3          	beq	a0,a5,6dc <printf+0x3c>
 714:	00048413          	mv	s0,s1
 718:	aadff0ef          	jal	ra,1c4 <putchar>
 71c:	00144503          	lbu	a0,1(s0)
 720:	00140493          	addi	s1,s0,1
 724:	fe0512e3          	bnez	a0,708 <printf+0x68>
 728:	00c12083          	lw	ra,12(sp)
 72c:	00812403          	lw	s0,8(sp)
 730:	00412483          	lw	s1,4(sp)
 734:	00000513          	li	a0,0
 738:	02410113          	addi	sp,sp,36
 73c:	00008067          	ret
 740:	00012703          	lw	a4,0(sp)
 744:	00100593          	li	a1,1
 748:	00072503          	lw	a0,0(a4)
 74c:	00470713          	addi	a4,a4,4
 750:	00e12023          	sw	a4,0(sp)
 754:	dc1ff0ef          	jal	ra,514 <putdx>
 758:	fa5ff06f          	j	6fc <printf+0x5c>
 75c:	00012683          	lw	a3,0(sp)
 760:	00001717          	auipc	a4,0x1
 764:	1e070713          	addi	a4,a4,480 # 1940 <CSWTCH.11+0x2f8>
 768:	0006a483          	lw	s1,0(a3)
 76c:	00468693          	addi	a3,a3,4
 770:	00d12023          	sw	a3,0(sp)
 774:	00049463          	bnez	s1,77c <printf+0xdc>
 778:	00070493          	mv	s1,a4
 77c:	0004c503          	lbu	a0,0(s1)
 780:	f6050ee3          	beqz	a0,6fc <printf+0x5c>
 784:	00148493          	addi	s1,s1,1
 788:	a3dff0ef          	jal	ra,1c4 <putchar>
 78c:	0004c503          	lbu	a0,0(s1)
 790:	fe051ae3          	bnez	a0,784 <printf+0xe4>
 794:	f69ff06f          	j	6fc <printf+0x5c>
 798:	00012703          	lw	a4,0(sp)
 79c:	00000593          	li	a1,0
 7a0:	00072503          	lw	a0,0(a4)
 7a4:	00470713          	addi	a4,a4,4
 7a8:	00e12023          	sw	a4,0(sp)
 7ac:	d69ff0ef          	jal	ra,514 <putdx>
 7b0:	f4dff06f          	j	6fc <printf+0x5c>

000007b4 <strncmp>:
 7b4:	fff60813          	addi	a6,a2,-1
 7b8:	00100713          	li	a4,1
 7bc:	00050793          	mv	a5,a0
 7c0:	01050833          	add	a6,a0,a6
 7c4:	02e61063          	bne	a2,a4,7e4 <strncmp+0x30>
 7c8:	0440006f          	j	80c <strncmp+0x58>
 7cc:	00158613          	addi	a2,a1,1
 7d0:	02050263          	beqz	a0,7f4 <strncmp+0x40>
 7d4:	02a71063          	bne	a4,a0,7f4 <strncmp+0x40>
 7d8:	03068263          	beq	a3,a6,7fc <strncmp+0x48>
 7dc:	00060593          	mv	a1,a2
 7e0:	00068793          	mv	a5,a3
 7e4:	0007c703          	lbu	a4,0(a5)
 7e8:	0005c503          	lbu	a0,0(a1)
 7ec:	00178693          	addi	a3,a5,1
 7f0:	fc071ee3          	bnez	a4,7cc <strncmp+0x18>
 7f4:	40a70533          	sub	a0,a4,a0
 7f8:	00008067          	ret
 7fc:	0017c703          	lbu	a4,1(a5)
 800:	0015c503          	lbu	a0,1(a1)
 804:	40a70533          	sub	a0,a4,a0
 808:	00008067          	ret
 80c:	00054703          	lbu	a4,0(a0)
 810:	0005c503          	lbu	a0,0(a1)
 814:	fe1ff06f          	j	7f4 <strncmp+0x40>

00000818 <strcmp>:
 818:	00054783          	lbu	a5,0(a0)
 81c:	00079c63          	bnez	a5,834 <strcmp+0x1c>
 820:	0380006f          	j	858 <strcmp+0x40>
 824:	02e79063          	bne	a5,a4,844 <strcmp+0x2c>
 828:	00054783          	lbu	a5,0(a0)
 82c:	02078063          	beqz	a5,84c <strcmp+0x34>
 830:	00068593          	mv	a1,a3
 834:	0005c703          	lbu	a4,0(a1)
 838:	00150513          	addi	a0,a0,1
 83c:	00158693          	addi	a3,a1,1
 840:	fe0712e3          	bnez	a4,824 <strcmp+0xc>
 844:	40e78533          	sub	a0,a5,a4
 848:	00008067          	ret
 84c:	0015c703          	lbu	a4,1(a1)
 850:	40e78533          	sub	a0,a5,a4
 854:	00008067          	ret
 858:	0005c703          	lbu	a4,0(a1)
 85c:	fe9ff06f          	j	844 <strcmp+0x2c>

00000860 <strlen>:
 860:	00050713          	mv	a4,a0
 864:	00000513          	li	a0,0
 868:	00071663          	bnez	a4,874 <strlen+0x14>
 86c:	0180006f          	j	884 <strlen+0x24>
 870:	00150513          	addi	a0,a0,1
 874:	00a707b3          	add	a5,a4,a0
 878:	0007c783          	lbu	a5,0(a5)
 87c:	fe079ae3          	bnez	a5,870 <strlen+0x10>
 880:	00008067          	ret
 884:	00008067          	ret

00000888 <memcpy>:
 888:	02060063          	beqz	a2,8a8 <memcpy+0x20>
 88c:	00c50633          	add	a2,a0,a2
 890:	00050793          	mv	a5,a0
 894:	0005c703          	lbu	a4,0(a1)
 898:	00178793          	addi	a5,a5,1
 89c:	00158593          	addi	a1,a1,1
 8a0:	fee78fa3          	sb	a4,-1(a5)
 8a4:	fef618e3          	bne	a2,a5,894 <memcpy+0xc>
 8a8:	00008067          	ret

000008ac <memset>:
 8ac:	0ff5f593          	zext.b	a1,a1
 8b0:	00c50733          	add	a4,a0,a2
 8b4:	00050793          	mv	a5,a0
 8b8:	00060863          	beqz	a2,8c8 <memset+0x1c>
 8bc:	00178793          	addi	a5,a5,1
 8c0:	feb78fa3          	sb	a1,-1(a5)
 8c4:	fef71ce3          	bne	a4,a5,8bc <memset+0x10>
 8c8:	00008067          	ret

000008cc <strtok>:
 8cc:	00000e13          	li	t3,0
 8d0:	00059663          	bnez	a1,8dc <strtok+0x10>
 8d4:	0140006f          	j	8e8 <strtok+0x1c>
 8d8:	001e0e13          	addi	t3,t3,1
 8dc:	01c587b3          	add	a5,a1,t3
 8e0:	0007c783          	lbu	a5,0(a5)
 8e4:	fe079ae3          	bnez	a5,8d8 <strtok+0xc>
 8e8:	08050263          	beqz	a0,96c <strtok+0xa0>
 8ec:	00054703          	lbu	a4,0(a0)
 8f0:	04070e63          	beqz	a4,94c <strtok+0x80>
 8f4:	01c508b3          	add	a7,a0,t3
 8f8:	00050e93          	mv	t4,a0
 8fc:	00100313          	li	t1,1
 900:	00058693          	mv	a3,a1
 904:	000e8793          	mv	a5,t4
 908:	006e1e63          	bne	t3,t1,924 <strtok+0x58>
 90c:	0280006f          	j	934 <strtok+0x68>
 910:	00168693          	addi	a3,a3,1
 914:	02060463          	beqz	a2,93c <strtok+0x70>
 918:	02c71263          	bne	a4,a2,93c <strtok+0x70>
 91c:	0007c703          	lbu	a4,0(a5)
 920:	00680a63          	beq	a6,t1,934 <strtok+0x68>
 924:	00178793          	addi	a5,a5,1
 928:	0006c603          	lbu	a2,0(a3)
 92c:	40f88833          	sub	a6,a7,a5
 930:	fe0710e3          	bnez	a4,910 <strtok+0x44>
 934:	0006c783          	lbu	a5,0(a3)
 938:	02e78063          	beq	a5,a4,958 <strtok+0x8c>
 93c:	001ec703          	lbu	a4,1(t4)
 940:	00188893          	addi	a7,a7,1
 944:	001e8e93          	addi	t4,t4,1
 948:	fa071ce3          	bnez	a4,900 <strtok+0x34>
 94c:	00001797          	auipc	a5,0x1
 950:	1807ae23          	sw	zero,412(a5) # 1ae8 <nxt.0>
 954:	00008067          	ret
 958:	001e8713          	addi	a4,t4,1
 95c:	00001797          	auipc	a5,0x1
 960:	000e8023          	sb	zero,0(t4)
 964:	18e7a623          	sw	a4,396(a5) # 1ae8 <nxt.0>
 968:	00008067          	ret
 96c:	00001797          	auipc	a5,0x1
 970:	17c7a503          	lw	a0,380(a5) # 1ae8 <nxt.0>
 974:	f6051ce3          	bnez	a0,8ec <strtok+0x20>
 978:	00000513          	li	a0,0
 97c:	00008067          	ret

00000980 <atoi>:
 980:	00050613          	mv	a2,a0
 984:	00000893          	li	a7,0
 988:	00000513          	li	a0,0
 98c:	02d00813          	li	a6,45
 990:	04060c63          	beqz	a2,9e8 <atoi+0x68>
 994:	00064703          	lbu	a4,0(a2)
 998:	00351793          	slli	a5,a0,0x3
 99c:	00151593          	slli	a1,a0,0x1
 9a0:	fd070693          	addi	a3,a4,-48
 9a4:	00f686b3          	add	a3,a3,a5
 9a8:	02070463          	beqz	a4,9d0 <atoi+0x50>
 9ac:	03070863          	beq	a4,a6,9dc <atoi+0x5c>
 9b0:	00b68533          	add	a0,a3,a1
 9b4:	00160613          	addi	a2,a2,1
 9b8:	00064703          	lbu	a4,0(a2)
 9bc:	00351793          	slli	a5,a0,0x3
 9c0:	00151593          	slli	a1,a0,0x1
 9c4:	fd070693          	addi	a3,a4,-48
 9c8:	00f686b3          	add	a3,a3,a5
 9cc:	fe0710e3          	bnez	a4,9ac <atoi+0x2c>
 9d0:	00088463          	beqz	a7,9d8 <atoi+0x58>
 9d4:	40a00533          	neg	a0,a0
 9d8:	00008067          	ret
 9dc:	00100893          	li	a7,1
 9e0:	00160613          	addi	a2,a2,1
 9e4:	fd5ff06f          	j	9b8 <atoi+0x38>
 9e8:	00008067          	ret

000009ec <xtoi>:
 9ec:	00050693          	mv	a3,a0
 9f0:	03900813          	li	a6,57
 9f4:	00000513          	li	a0,0
 9f8:	04068463          	beqz	a3,a40 <xtoi+0x54>
 9fc:	0006c783          	lbu	a5,0(a3)
 a00:	00451613          	slli	a2,a0,0x4
 a04:	05f7f713          	andi	a4,a5,95
 a08:	fd078593          	addi	a1,a5,-48
 a0c:	fc970713          	addi	a4,a4,-55
 a10:	02078663          	beqz	a5,a3c <xtoi+0x50>
 a14:	00c58533          	add	a0,a1,a2
 a18:	00f87463          	bgeu	a6,a5,a20 <xtoi+0x34>
 a1c:	00c70533          	add	a0,a4,a2
 a20:	0016c783          	lbu	a5,1(a3)
 a24:	00168693          	addi	a3,a3,1
 a28:	00451613          	slli	a2,a0,0x4
 a2c:	05f7f713          	andi	a4,a5,95
 a30:	fd078593          	addi	a1,a5,-48
 a34:	fc970713          	addi	a4,a4,-55
 a38:	fc079ee3          	bnez	a5,a14 <xtoi+0x28>
 a3c:	00008067          	ret
 a40:	00008067          	ret

00000a44 <mac>:
 a44:	857f                	0x857f
 a46:	00c5                	addi	ra,ra,17
 a48:	00008067          	ret

00000a4c <__umulsi3>:
 a4c:	00050793          	mv	a5,a0
 a50:	00b57663          	bgeu	a0,a1,a5c <__umulsi3+0x10>
 a54:	00058793          	mv	a5,a1
 a58:	00050593          	mv	a1,a0
 a5c:	00000513          	li	a0,0
 a60:	02058063          	beqz	a1,a80 <__umulsi3+0x34>
 a64:	0015f713          	andi	a4,a1,1
 a68:	0015d593          	srli	a1,a1,0x1
 a6c:	00070463          	beqz	a4,a74 <__umulsi3+0x28>
 a70:	00f50533          	add	a0,a0,a5
 a74:	00179793          	slli	a5,a5,0x1
 a78:	fe0596e3          	bnez	a1,a64 <__umulsi3+0x18>
 a7c:	00008067          	ret
 a80:	00008067          	ret

00000a84 <__mulsi3>:
 a84:	00000613          	li	a2,0
 a88:	00055663          	bgez	a0,a94 <__mulsi3+0x10>
 a8c:	40a00533          	neg	a0,a0
 a90:	00100613          	li	a2,1
 a94:	00050793          	mv	a5,a0
 a98:	0405c463          	bltz	a1,ae0 <__mulsi3+0x5c>
 a9c:	00058713          	mv	a4,a1
 aa0:	00000813          	li	a6,0
 aa4:	00b56863          	bltu	a0,a1,ab4 <__mulsi3+0x30>
 aa8:	00050713          	mv	a4,a0
 aac:	00000813          	li	a6,0
 ab0:	00058793          	mv	a5,a1
 ab4:	04078663          	beqz	a5,b00 <__mulsi3+0x7c>
 ab8:	00000513          	li	a0,0
 abc:	0017f693          	andi	a3,a5,1
 ac0:	0017d793          	srli	a5,a5,0x1
 ac4:	00068463          	beqz	a3,acc <__mulsi3+0x48>
 ac8:	00e50533          	add	a0,a0,a4
 acc:	00171713          	slli	a4,a4,0x1
 ad0:	fe0796e3          	bnez	a5,abc <__mulsi3+0x38>
 ad4:	01060463          	beq	a2,a6,adc <__mulsi3+0x58>
 ad8:	40a00533          	neg	a0,a0
 adc:	00008067          	ret
 ae0:	40b00733          	neg	a4,a1
 ae4:	00e56a63          	bltu	a0,a4,af8 <__mulsi3+0x74>
 ae8:	00070793          	mv	a5,a4
 aec:	00100813          	li	a6,1
 af0:	00050713          	mv	a4,a0
 af4:	fc5ff06f          	j	ab8 <__mulsi3+0x34>
 af8:	00100813          	li	a6,1
 afc:	fa079ee3          	bnez	a5,ab8 <__mulsi3+0x34>
 b00:	00000513          	li	a0,0
 b04:	fd1ff06f          	j	ad4 <__mulsi3+0x50>

00000b08 <__udiv_umod_si3>:
 b08:	00050713          	mv	a4,a0
 b0c:	04058c63          	beqz	a1,b64 <__udiv_umod_si3+0x5c>
 b10:	00100793          	li	a5,1
 b14:	04a5fc63          	bgeu	a1,a0,b6c <__udiv_umod_si3+0x64>
 b18:	0005d663          	bgez	a1,b24 <__udiv_umod_si3+0x1c>
 b1c:	0180006f          	j	b34 <__udiv_umod_si3+0x2c>
 b20:	0005c863          	bltz	a1,b30 <__udiv_umod_si3+0x28>
 b24:	00159593          	slli	a1,a1,0x1
 b28:	00179793          	slli	a5,a5,0x1
 b2c:	fee5eae3          	bltu	a1,a4,b20 <__udiv_umod_si3+0x18>
 b30:	04078063          	beqz	a5,b70 <__udiv_umod_si3+0x68>
 b34:	00000513          	li	a0,0
 b38:	00b76663          	bltu	a4,a1,b44 <__udiv_umod_si3+0x3c>
 b3c:	40b70733          	sub	a4,a4,a1
 b40:	00f50533          	add	a0,a0,a5
 b44:	0017d793          	srli	a5,a5,0x1
 b48:	0015d593          	srli	a1,a1,0x1
 b4c:	00070463          	beqz	a4,b54 <__udiv_umod_si3+0x4c>
 b50:	fe0794e3          	bnez	a5,b38 <__udiv_umod_si3+0x30>
 b54:	00060463          	beqz	a2,b5c <__udiv_umod_si3+0x54>
 b58:	00008067          	ret
 b5c:	00070513          	mv	a0,a4
 b60:	00008067          	ret
 b64:	00000513          	li	a0,0
 b68:	00008067          	ret
 b6c:	fc0514e3          	bnez	a0,b34 <__udiv_umod_si3+0x2c>
 b70:	00000513          	li	a0,0
 b74:	fe0612e3          	bnez	a2,b58 <__udiv_umod_si3+0x50>
 b78:	fe5ff06f          	j	b5c <__udiv_umod_si3+0x54>

00000b7c <__udivsi3>:
 b7c:	04058863          	beqz	a1,bcc <__udivsi3+0x50>
 b80:	00050713          	mv	a4,a0
 b84:	00100793          	li	a5,1
 b88:	04a5f663          	bgeu	a1,a0,bd4 <__udivsi3+0x58>
 b8c:	0005d663          	bgez	a1,b98 <__udivsi3+0x1c>
 b90:	0180006f          	j	ba8 <__udivsi3+0x2c>
 b94:	0005c863          	bltz	a1,ba4 <__udivsi3+0x28>
 b98:	00159593          	slli	a1,a1,0x1
 b9c:	00179793          	slli	a5,a5,0x1
 ba0:	fea5eae3          	bltu	a1,a0,b94 <__udivsi3+0x18>
 ba4:	02078463          	beqz	a5,bcc <__udivsi3+0x50>
 ba8:	00000513          	li	a0,0
 bac:	00b76663          	bltu	a4,a1,bb8 <__udivsi3+0x3c>
 bb0:	40b70733          	sub	a4,a4,a1
 bb4:	00f50533          	add	a0,a0,a5
 bb8:	0017d793          	srli	a5,a5,0x1
 bbc:	0015d593          	srli	a1,a1,0x1
 bc0:	00070863          	beqz	a4,bd0 <__udivsi3+0x54>
 bc4:	fe0794e3          	bnez	a5,bac <__udivsi3+0x30>
 bc8:	00008067          	ret
 bcc:	00000513          	li	a0,0
 bd0:	00008067          	ret
 bd4:	fc051ae3          	bnez	a0,ba8 <__udivsi3+0x2c>
 bd8:	00008067          	ret

00000bdc <__umodsi3>:
 bdc:	04058663          	beqz	a1,c28 <__umodsi3+0x4c>
 be0:	00050713          	mv	a4,a0
 be4:	00100793          	li	a5,1
 be8:	04a5f663          	bgeu	a1,a0,c34 <__umodsi3+0x58>
 bec:	0005d663          	bgez	a1,bf8 <__umodsi3+0x1c>
 bf0:	0180006f          	j	c08 <__umodsi3+0x2c>
 bf4:	0005c863          	bltz	a1,c04 <__umodsi3+0x28>
 bf8:	00159593          	slli	a1,a1,0x1
 bfc:	00179793          	slli	a5,a5,0x1
 c00:	fea5eae3          	bltu	a1,a0,bf4 <__umodsi3+0x18>
 c04:	02078663          	beqz	a5,c30 <__umodsi3+0x54>
 c08:	00b76463          	bltu	a4,a1,c10 <__umodsi3+0x34>
 c0c:	40b70733          	sub	a4,a4,a1
 c10:	0017d793          	srli	a5,a5,0x1
 c14:	0015d593          	srli	a1,a1,0x1
 c18:	00070863          	beqz	a4,c28 <__umodsi3+0x4c>
 c1c:	fe0796e3          	bnez	a5,c08 <__umodsi3+0x2c>
 c20:	00070513          	mv	a0,a4
 c24:	00008067          	ret
 c28:	00000513          	li	a0,0
 c2c:	00008067          	ret
 c30:	00008067          	ret
 c34:	fc051ae3          	bnez	a0,c08 <__umodsi3+0x2c>
 c38:	00008067          	ret

00000c3c <__div_mod_si3>:
 c3c:	08058063          	beqz	a1,cbc <__div_mod_si3+0x80>
 c40:	00000813          	li	a6,0
 c44:	06054263          	bltz	a0,ca8 <__div_mod_si3+0x6c>
 c48:	00000893          	li	a7,0
 c4c:	0405c863          	bltz	a1,c9c <__div_mod_si3+0x60>
 c50:	00050713          	mv	a4,a0
 c54:	00100793          	li	a5,1
 c58:	08a5f263          	bgeu	a1,a0,cdc <__div_mod_si3+0xa0>
 c5c:	00159593          	slli	a1,a1,0x1
 c60:	00179793          	slli	a5,a5,0x1
 c64:	fea5ece3          	bltu	a1,a0,c5c <__div_mod_si3+0x20>
 c68:	06078c63          	beqz	a5,ce0 <__div_mod_si3+0xa4>
 c6c:	00000693          	li	a3,0
 c70:	00b76663          	bltu	a4,a1,c7c <__div_mod_si3+0x40>
 c74:	40b70733          	sub	a4,a4,a1
 c78:	00f686b3          	add	a3,a3,a5
 c7c:	0017d793          	srli	a5,a5,0x1
 c80:	0015d593          	srli	a1,a1,0x1
 c84:	00070463          	beqz	a4,c8c <__div_mod_si3+0x50>
 c88:	fe0794e3          	bnez	a5,c70 <__div_mod_si3+0x34>
 c8c:	02060c63          	beqz	a2,cc4 <__div_mod_si3+0x88>
 c90:	40d00533          	neg	a0,a3
 c94:	05180063          	beq	a6,a7,cd4 <__div_mod_si3+0x98>
 c98:	00008067          	ret
 c9c:	40b005b3          	neg	a1,a1
 ca0:	00100893          	li	a7,1
 ca4:	fadff06f          	j	c50 <__div_mod_si3+0x14>
 ca8:	40a00533          	neg	a0,a0
 cac:	00100813          	li	a6,1
 cb0:	00000893          	li	a7,0
 cb4:	f805dee3          	bgez	a1,c50 <__div_mod_si3+0x14>
 cb8:	fe5ff06f          	j	c9c <__div_mod_si3+0x60>
 cbc:	00000513          	li	a0,0
 cc0:	00008067          	ret
 cc4:	40e00533          	neg	a0,a4
 cc8:	fc0818e3          	bnez	a6,c98 <__div_mod_si3+0x5c>
 ccc:	00070513          	mv	a0,a4
 cd0:	00008067          	ret
 cd4:	00068513          	mv	a0,a3
 cd8:	00008067          	ret
 cdc:	f80518e3          	bnez	a0,c6c <__div_mod_si3+0x30>
 ce0:	00000693          	li	a3,0
 ce4:	fa9ff06f          	j	c8c <__div_mod_si3+0x50>

00000ce8 <__divsi3>:
 ce8:	08058063          	beqz	a1,d68 <__divsi3+0x80>
 cec:	00000613          	li	a2,0
 cf0:	06054263          	bltz	a0,d54 <__divsi3+0x6c>
 cf4:	00000693          	li	a3,0
 cf8:	0405c863          	bltz	a1,d48 <__divsi3+0x60>
 cfc:	00050713          	mv	a4,a0
 d00:	00100793          	li	a5,1
 d04:	06a5f663          	bgeu	a1,a0,d70 <__divsi3+0x88>
 d08:	00159593          	slli	a1,a1,0x1
 d0c:	00179793          	slli	a5,a5,0x1
 d10:	fea5ece3          	bltu	a1,a0,d08 <__divsi3+0x20>
 d14:	00000513          	li	a0,0
 d18:	02078263          	beqz	a5,d3c <__divsi3+0x54>
 d1c:	00000513          	li	a0,0
 d20:	00b76663          	bltu	a4,a1,d2c <__divsi3+0x44>
 d24:	40b70733          	sub	a4,a4,a1
 d28:	00f50533          	add	a0,a0,a5
 d2c:	0017d793          	srli	a5,a5,0x1
 d30:	0015d593          	srli	a1,a1,0x1
 d34:	00070463          	beqz	a4,d3c <__divsi3+0x54>
 d38:	fe0794e3          	bnez	a5,d20 <__divsi3+0x38>
 d3c:	02d60863          	beq	a2,a3,d6c <__divsi3+0x84>
 d40:	40a00533          	neg	a0,a0
 d44:	00008067          	ret
 d48:	40b005b3          	neg	a1,a1
 d4c:	00100693          	li	a3,1
 d50:	fadff06f          	j	cfc <__divsi3+0x14>
 d54:	40a00533          	neg	a0,a0
 d58:	00100613          	li	a2,1
 d5c:	00000693          	li	a3,0
 d60:	f805dee3          	bgez	a1,cfc <__divsi3+0x14>
 d64:	fe5ff06f          	j	d48 <__divsi3+0x60>
 d68:	00000513          	li	a0,0
 d6c:	00008067          	ret
 d70:	fc0506e3          	beqz	a0,d3c <__divsi3+0x54>
 d74:	00000513          	li	a0,0
 d78:	fa9ff06f          	j	d20 <__divsi3+0x38>

00000d7c <__modsi3>:
 d7c:	06058c63          	beqz	a1,df4 <__modsi3+0x78>
 d80:	41f5d793          	srai	a5,a1,0x1f
 d84:	00b7c5b3          	xor	a1,a5,a1
 d88:	40f585b3          	sub	a1,a1,a5
 d8c:	04054863          	bltz	a0,ddc <__modsi3+0x60>
 d90:	00000713          	li	a4,0
 d94:	06a5f463          	bgeu	a1,a0,dfc <__modsi3+0x80>
 d98:	00100793          	li	a5,1
 d9c:	00159593          	slli	a1,a1,0x1
 da0:	00179793          	slli	a5,a5,0x1
 da4:	fea5ece3          	bltu	a1,a0,d9c <__modsi3+0x20>
 da8:	02078463          	beqz	a5,dd0 <__modsi3+0x54>
 dac:	00b57a63          	bgeu	a0,a1,dc0 <__modsi3+0x44>
 db0:	0017d793          	srli	a5,a5,0x1
 db4:	0015d593          	srli	a1,a1,0x1
 db8:	fe079ae3          	bnez	a5,dac <__modsi3+0x30>
 dbc:	0140006f          	j	dd0 <__modsi3+0x54>
 dc0:	40b50533          	sub	a0,a0,a1
 dc4:	0017d793          	srli	a5,a5,0x1
 dc8:	0015d593          	srli	a1,a1,0x1
 dcc:	fc051ee3          	bnez	a0,da8 <__modsi3+0x2c>
 dd0:	02070063          	beqz	a4,df0 <__modsi3+0x74>
 dd4:	40a00533          	neg	a0,a0
 dd8:	00008067          	ret
 ddc:	40a00533          	neg	a0,a0
 de0:	00100713          	li	a4,1
 de4:	00100793          	li	a5,1
 de8:	faa5e8e3          	bltu	a1,a0,d98 <__modsi3+0x1c>
 dec:	fc1ff06f          	j	dac <__modsi3+0x30>
 df0:	00008067          	ret
 df4:	00000513          	li	a0,0
 df8:	00008067          	ret
 dfc:	00100793          	li	a5,1
 e00:	fa0516e3          	bnez	a0,dac <__modsi3+0x30>
 e04:	00008067          	ret

00000e08 <usleep>:
 e08:	fff50713          	addi	a4,a0,-1
 e0c:	02050a63          	beqz	a0,e40 <usleep+0x38>
 e10:	f8000613          	li	a2,-128
 e14:	fff00693          	li	a3,-1
 e18:	7ffff797          	auipc	a5,0x7ffff
 e1c:	1e878793          	addi	a5,a5,488 # 80000000 <io>
 e20:	00c781a3          	sb	a2,3(a5)
 e24:	7ffff797          	auipc	a5,0x7ffff
 e28:	1dc78793          	addi	a5,a5,476 # 80000000 <io>
 e2c:	0037c783          	lbu	a5,3(a5)
 e30:	0ff7f793          	zext.b	a5,a5
 e34:	fe0788e3          	beqz	a5,e24 <usleep+0x1c>
 e38:	fff70713          	addi	a4,a4,-1
 e3c:	fcd71ee3          	bne	a4,a3,e18 <usleep+0x10>
 e40:	00008067          	ret

00000e44 <banner>:
 e44:	00001797          	auipc	a5,0x1
 e48:	edc10113          	addi	sp,sp,-292
 e4c:	b5878793          	addi	a5,a5,-1192 # 199c <CSWTCH.11+0x354>
 e50:	12112023          	sw	ra,288(sp)
 e54:	10812e23          	sw	s0,284(sp)
 e58:	10912c23          	sw	s1,280(sp)
 e5c:	00810713          	addi	a4,sp,8
 e60:	10878313          	addi	t1,a5,264
 e64:	0007a883          	lw	a7,0(a5)
 e68:	0047a803          	lw	a6,4(a5)
 e6c:	0087a503          	lw	a0,8(a5)
 e70:	00c7a583          	lw	a1,12(a5)
 e74:	0107a603          	lw	a2,16(a5)
 e78:	0147a683          	lw	a3,20(a5)
 e7c:	01172023          	sw	a7,0(a4)
 e80:	01072223          	sw	a6,4(a4)
 e84:	00a72423          	sw	a0,8(a4)
 e88:	00b72623          	sw	a1,12(a4)
 e8c:	00c72823          	sw	a2,16(a4)
 e90:	00d72a23          	sw	a3,20(a4)
 e94:	01878793          	addi	a5,a5,24
 e98:	01870713          	addi	a4,a4,24
 e9c:	fc6794e3          	bne	a5,t1,e64 <banner+0x20>
 ea0:	0007a683          	lw	a3,0(a5)
 ea4:	0047c783          	lbu	a5,4(a5)
 ea8:	00a00513          	li	a0,10
 eac:	00d72023          	sw	a3,0(a4)
 eb0:	00f70223          	sb	a5,4(a4)
 eb4:	07600793          	li	a5,118
 eb8:	00f12223          	sw	a5,4(sp)
 ebc:	b08ff0ef          	jal	ra,1c4 <putchar>
 ec0:	00810793          	addi	a5,sp,8
 ec4:	00f12023          	sw	a5,0(sp)
 ec8:	02000413          	li	s0,32
 ecc:	00e00793          	li	a5,14
 ed0:	00078493          	mv	s1,a5
 ed4:	00012783          	lw	a5,0(sp)
 ed8:	00278793          	addi	a5,a5,2
 edc:	00f12023          	sw	a5,0(sp)
 ee0:	00048a63          	beqz	s1,ef4 <banner+0xb0>
 ee4:	fff48493          	addi	s1,s1,-1
 ee8:	00040513          	mv	a0,s0
 eec:	ad8ff0ef          	jal	ra,1c4 <putchar>
 ef0:	fe049ae3          	bnez	s1,ee4 <banner+0xa0>
 ef4:	00412783          	lw	a5,4(sp)
 ef8:	00078e63          	beqz	a5,f14 <banner+0xd0>
 efc:	00012703          	lw	a4,0(sp)
 f00:	00412403          	lw	s0,4(sp)
 f04:	00174783          	lbu	a5,1(a4)
 f08:	00274703          	lbu	a4,2(a4)
 f0c:	00e12223          	sw	a4,4(sp)
 f10:	fc1ff06f          	j	ed0 <banner+0x8c>
 f14:	12012083          	lw	ra,288(sp)
 f18:	11c12403          	lw	s0,284(sp)
 f1c:	11812483          	lw	s1,280(sp)
 f20:	12410113          	addi	sp,sp,292
 f24:	00008067          	ret

Desmontagem da secção .text.startup:

00000f28 <main>:
     f28:	f8410113          	addi	sp,sp,-124
     f2c:	7ffff797          	auipc	a5,0x7ffff
     f30:	06112c23          	sw	ra,120(sp)
     f34:	06812a23          	sw	s0,116(sp)
     f38:	0d478793          	addi	a5,a5,212 # 80000000 <io>
     f3c:	06912823          	sw	s1,112(sp)
     f40:	0007c503          	lbu	a0,0(a5)
     f44:	00000413          	li	s0,0
     f48:	0ff57513          	zext.b	a0,a0
     f4c:	930ff0ef          	jal	ra,7c <board_name>
     f50:	7ffff797          	auipc	a5,0x7ffff
     f54:	0b078793          	addi	a5,a5,176 # 80000000 <io>
     f58:	0007c603          	lbu	a2,0(a5)
     f5c:	00050593          	mv	a1,a0
     f60:	00000517          	auipc	a0,0x0
     f64:	0ff67613          	zext.b	a2,a2
     f68:	72050513          	addi	a0,a0,1824 # 1680 <CSWTCH.11+0x38>
     f6c:	f34ff0ef          	jal	ra,6a0 <printf>
     f70:	00000617          	auipc	a2,0x0
     f74:	00000597          	auipc	a1,0x0
     f78:	00000517          	auipc	a0,0x0
     f7c:	72460613          	addi	a2,a2,1828 # 1694 <CSWTCH.11+0x4c>
     f80:	72858593          	addi	a1,a1,1832 # 169c <CSWTCH.11+0x54>
     f84:	74450513          	addi	a0,a0,1860 # 16bc <CSWTCH.11+0x74>
     f88:	f18ff0ef          	jal	ra,6a0 <printf>
     f8c:	00001797          	auipc	a5,0x1
     f90:	b587a783          	lw	a5,-1192(a5) # 1ae4 <threads>
     f94:	0c078a63          	beqz	a5,1068 <main+0x140>
     f98:	7ffff717          	auipc	a4,0x7ffff
     f9c:	7ffff797          	auipc	a5,0x7ffff
     fa0:	06870713          	addi	a4,a4,104 # 80000000 <io>
     fa4:	06478793          	addi	a5,a5,100 # 80000000 <io>
     fa8:	00174483          	lbu	s1,1(a4)
     fac:	0027c783          	lbu	a5,2(a5)
     fb0:	00000717          	auipc	a4,0x0
     fb4:	00e12423          	sw	a4,8(sp)
     fb8:	0ff7f793          	zext.b	a5,a5
     fbc:	00f12223          	sw	a5,4(sp)
     fc0:	8acff0ef          	jal	ra,6c <check4rv32i>
     fc4:	00001797          	auipc	a5,0x1
     fc8:	00812703          	lw	a4,8(sp)
     fcc:	b207a683          	lw	a3,-1248(a5) # 1ae4 <threads>
     fd0:	00050813          	mv	a6,a0
     fd4:	0ff4f493          	zext.b	s1,s1
     fd8:	01000613          	li	a2,16
     fdc:	01000593          	li	a1,16
     fe0:	3e800513          	li	a0,1000
     fe4:	00000797          	auipc	a5,0x0
     fe8:	6e870713          	addi	a4,a4,1768 # 1698 <CSWTCH.11+0x50>
     fec:	00081663          	bnez	a6,ff8 <main+0xd0>
     ff0:	00000717          	auipc	a4,0x0
     ff4:	68070713          	addi	a4,a4,1664 # 1670 <CSWTCH.11+0x28>
     ff8:	00100813          	li	a6,1
     ffc:	69078793          	addi	a5,a5,1680 # 1674 <CSWTCH.11+0x2c>
    1000:	00d84663          	blt	a6,a3,100c <main+0xe4>
    1004:	00001797          	auipc	a5,0x1
    1008:	aa478793          	addi	a5,a5,-1372 # 1aa8 <CSWTCH.11+0x460>
    100c:	00f12623          	sw	a5,12(sp)
    1010:	00e12423          	sw	a4,8(sp)
    1014:	a31ff0ef          	jal	ra,a44 <mac>
    1018:	00050313          	mv	t1,a0
    101c:	00000817          	auipc	a6,0x0
    1020:	00000517          	auipc	a0,0x0
    1024:	4e800893          	li	a7,1256
    1028:	00040593          	mv	a1,s0
    102c:	00c12783          	lw	a5,12(sp)
    1030:	00812703          	lw	a4,8(sp)
    1034:	00412683          	lw	a3,4(sp)
    1038:	00048613          	mv	a2,s1
    103c:	70c50513          	addi	a0,a0,1804 # 172c <CSWTCH.11+0xe4>
    1040:	00140413          	addi	s0,s0,1
    1044:	65c80813          	addi	a6,a6,1628 # 1678 <CSWTCH.11+0x30>
    1048:	01130663          	beq	t1,a7,1054 <main+0x12c>
    104c:	00001817          	auipc	a6,0x1
    1050:	a5c80813          	addi	a6,a6,-1444 # 1aa8 <CSWTCH.11+0x460>
    1054:	01012023          	sw	a6,0(sp)
    1058:	e48ff0ef          	jal	ra,6a0 <printf>
    105c:	00001797          	auipc	a5,0x1
    1060:	a887a783          	lw	a5,-1400(a5) # 1ae4 <threads>
    1064:	f2879ae3          	bne	a5,s0,f98 <main+0x70>
    1068:	00001797          	auipc	a5,0x1
    106c:	a607ae23          	sw	zero,-1412(a5) # 1ae4 <threads>
    1070:	7ffff797          	auipc	a5,0x7ffff
    1074:	f9078793          	addi	a5,a5,-112 # 80000000 <io>
    1078:	0067d583          	lhu	a1,6(a5)
    107c:	00000517          	auipc	a0,0x0
    1080:	65450513          	addi	a0,a0,1620 # 16d0 <CSWTCH.11+0x88>
    1084:	01059593          	slli	a1,a1,0x10
    1088:	0105d593          	srli	a1,a1,0x10
    108c:	e14ff0ef          	jal	ra,6a0 <printf>
    1090:	7ffff717          	auipc	a4,0x7ffff
    1094:	7ffff797          	auipc	a5,0x7ffff
    1098:	f7070713          	addi	a4,a4,-144 # 80000000 <io>
    109c:	f6c78793          	addi	a5,a5,-148 # 80000000 <io>
    10a0:	00174683          	lbu	a3,1(a4)
    10a4:	0027c703          	lbu	a4,2(a5)
    10a8:	7ffff597          	auipc	a1,0x7ffff
    10ac:	0ff6f693          	zext.b	a3,a3
    10b0:	0ff77713          	zext.b	a4,a4
    10b4:	00569613          	slli	a2,a3,0x5
    10b8:	00271793          	slli	a5,a4,0x2
    10bc:	40d60633          	sub	a2,a2,a3
    10c0:	00e787b3          	add	a5,a5,a4
    10c4:	00661513          	slli	a0,a2,0x6
    10c8:	00379793          	slli	a5,a5,0x3
    10cc:	40e787b3          	sub	a5,a5,a4
    10d0:	40c50533          	sub	a0,a0,a2
    10d4:	f5858593          	addi	a1,a1,-168 # 80000000 <io>
    10d8:	00c5a583          	lw	a1,12(a1)
    10dc:	00351513          	slli	a0,a0,0x3
    10e0:	00479793          	slli	a5,a5,0x4
    10e4:	00d50533          	add	a0,a0,a3
    10e8:	00e787b3          	add	a5,a5,a4
    10ec:	7ffff617          	auipc	a2,0x7ffff
    10f0:	00479793          	slli	a5,a5,0x4
    10f4:	f1460613          	addi	a2,a2,-236 # 80000000 <io>
    10f8:	00651513          	slli	a0,a0,0x6
    10fc:	00c62403          	lw	s0,12(a2)
    1100:	00f50533          	add	a0,a0,a5
    1104:	00158593          	addi	a1,a1,1
    1108:	a75ff0ef          	jal	ra,b7c <__udivsi3>
    110c:	00050593          	mv	a1,a0
    1110:	00000517          	auipc	a0,0x0
    1114:	00040613          	mv	a2,s0
    1118:	5dc50513          	addi	a0,a0,1500 # 16ec <CSWTCH.11+0xa4>
    111c:	d84ff0ef          	jal	ra,6a0 <printf>
    1120:	00000517          	auipc	a0,0x0
    1124:	70050513          	addi	a0,a0,1792 # 1820 <CSWTCH.11+0x1d8>
    1128:	d78ff0ef          	jal	ra,6a0 <printf>
    112c:	00000517          	auipc	a0,0x0
    1130:	5e850513          	addi	a0,a0,1512 # 1714 <CSWTCH.11+0xcc>
    1134:	d6cff0ef          	jal	ra,6a0 <printf>
    1138:	00000517          	auipc	a0,0x0
    113c:	62450513          	addi	a0,a0,1572 # 175c <CSWTCH.11+0x114>
    1140:	d60ff0ef          	jal	ra,6a0 <printf>
    1144:	04000613          	li	a2,64
    1148:	00000593          	li	a1,0
    114c:	03010513          	addi	a0,sp,48
    1150:	f5cff0ef          	jal	ra,8ac <memset>
    1154:	04000593          	li	a1,64
    1158:	03010513          	addi	a0,sp,48
    115c:	9b4ff0ef          	jal	ra,310 <gets>
    1160:	01010493          	addi	s1,sp,16
    1164:	00100413          	li	s0,1
    1168:	0200006f          	j	1188 <main+0x260>
    116c:	f60ff0ef          	jal	ra,8cc <strtok>
    1170:	00a4a023          	sw	a0,0(s1)
    1174:	00800793          	li	a5,8
    1178:	02050e63          	beqz	a0,11b4 <main+0x28c>
    117c:	02f40c63          	beq	s0,a5,11b4 <main+0x28c>
    1180:	00140413          	addi	s0,s0,1
    1184:	00448493          	addi	s1,s1,4
    1188:	00000597          	auipc	a1,0x0
    118c:	00100793          	li	a5,1
    1190:	5d858593          	addi	a1,a1,1496 # 1760 <CSWTCH.11+0x118>
    1194:	00000513          	li	a0,0
    1198:	fcf41ae3          	bne	s0,a5,116c <main+0x244>
    119c:	00000597          	auipc	a1,0x0
    11a0:	5c458593          	addi	a1,a1,1476 # 1760 <CSWTCH.11+0x118>
    11a4:	03010513          	addi	a0,sp,48
    11a8:	f24ff0ef          	jal	ra,8cc <strtok>
    11ac:	00a4a023          	sw	a0,0(s1)
    11b0:	fc0518e3          	bnez	a0,1180 <main+0x258>
    11b4:	01012403          	lw	s0,16(sp)
    11b8:	f80400e3          	beqz	s0,1138 <main+0x210>
    11bc:	00000597          	auipc	a1,0x0
    11c0:	5a858593          	addi	a1,a1,1448 # 1764 <CSWTCH.11+0x11c>
    11c4:	00040513          	mv	a0,s0
    11c8:	e50ff0ef          	jal	ra,818 <strcmp>
    11cc:	08050263          	beqz	a0,1250 <main+0x328>
    11d0:	00000597          	auipc	a1,0x0
    11d4:	5a458593          	addi	a1,a1,1444 # 1774 <CSWTCH.11+0x12c>
    11d8:	00040513          	mv	a0,s0
    11dc:	e3cff0ef          	jal	ra,818 <strcmp>
    11e0:	16050a63          	beqz	a0,1354 <main+0x42c>
    11e4:	00000597          	auipc	a1,0x0
    11e8:	5bc58593          	addi	a1,a1,1468 # 17a0 <CSWTCH.11+0x158>
    11ec:	00040513          	mv	a0,s0
    11f0:	e28ff0ef          	jal	ra,818 <strcmp>
    11f4:	06050663          	beqz	a0,1260 <main+0x338>
    11f8:	00000597          	auipc	a1,0x0
    11fc:	5bc58593          	addi	a1,a1,1468 # 17b4 <CSWTCH.11+0x16c>
    1200:	00040513          	mv	a0,s0
    1204:	e14ff0ef          	jal	ra,818 <strcmp>
    1208:	10051263          	bnez	a0,130c <main+0x3e4>
    120c:	01412503          	lw	a0,20(sp)
    1210:	00050e63          	beqz	a0,122c <main+0x304>
    1214:	fd8ff0ef          	jal	ra,9ec <xtoi>
    1218:	01051713          	slli	a4,a0,0x10
    121c:	7ffff797          	auipc	a5,0x7ffff
    1220:	01075713          	srli	a4,a4,0x10
    1224:	de478793          	addi	a5,a5,-540 # 80000000 <io>
    1228:	00e79423          	sh	a4,8(a5)
    122c:	7ffff797          	auipc	a5,0x7ffff
    1230:	dd478793          	addi	a5,a5,-556 # 80000000 <io>
    1234:	0087d583          	lhu	a1,8(a5)
    1238:	00000517          	auipc	a0,0x0
    123c:	58050513          	addi	a0,a0,1408 # 17b8 <CSWTCH.11+0x170>
    1240:	01059593          	slli	a1,a1,0x10
    1244:	0105d593          	srli	a1,a1,0x10
    1248:	c58ff0ef          	jal	ra,6a0 <printf>
    124c:	eedff06f          	j	1138 <main+0x210>
    1250:	00000517          	auipc	a0,0x0
    1254:	51c50513          	addi	a0,a0,1308 # 176c <CSWTCH.11+0x124>
    1258:	c48ff0ef          	jal	ra,6a0 <printf>
    125c:	eddff06f          	j	1138 <main+0x210>
    1260:	01412783          	lw	a5,20(sp)
    1264:	00f12423          	sw	a5,8(sp)
    1268:	00078863          	beqz	a5,1278 <main+0x350>
    126c:	00078513          	mv	a0,a5
    1270:	f7cff0ef          	jal	ra,9ec <xtoi>
    1274:	00a12423          	sw	a0,8(sp)
    1278:	00812783          	lw	a5,8(sp)
    127c:	01078493          	addi	s1,a5,16
    1280:	10078793          	addi	a5,a5,256
    1284:	00f12623          	sw	a5,12(sp)
    1288:	00812583          	lw	a1,8(sp)
    128c:	00000517          	auipc	a0,0x0
    1290:	51c50513          	addi	a0,a0,1308 # 17a8 <CSWTCH.11+0x160>
    1294:	00058413          	mv	s0,a1
    1298:	c08ff0ef          	jal	ra,6a0 <printf>
    129c:	00812783          	lw	a5,8(sp)
    12a0:	0007c583          	lbu	a1,0(a5)
    12a4:	00000517          	auipc	a0,0x0
    12a8:	00178793          	addi	a5,a5,1
    12ac:	50c50513          	addi	a0,a0,1292 # 17b0 <CSWTCH.11+0x168>
    12b0:	00f12223          	sw	a5,4(sp)
    12b4:	becff0ef          	jal	ra,6a0 <printf>
    12b8:	00412783          	lw	a5,4(sp)
    12bc:	fe9792e3          	bne	a5,s1,12a0 <main+0x378>
    12c0:	00044503          	lbu	a0,0(s0)
    12c4:	05e00713          	li	a4,94
    12c8:	00140413          	addi	s0,s0,1
    12cc:	fe050793          	addi	a5,a0,-32
    12d0:	0ff7f793          	zext.b	a5,a5
    12d4:	00f77463          	bgeu	a4,a5,12dc <main+0x3b4>
    12d8:	02e00513          	li	a0,46
    12dc:	ee9fe0ef          	jal	ra,1c4 <putchar>
    12e0:	fe8490e3          	bne	s1,s0,12c0 <main+0x398>
    12e4:	00812783          	lw	a5,8(sp)
    12e8:	00a00513          	li	a0,10
    12ec:	01048493          	addi	s1,s1,16
    12f0:	01078793          	addi	a5,a5,16
    12f4:	00078413          	mv	s0,a5
    12f8:	00f12423          	sw	a5,8(sp)
    12fc:	ec9fe0ef          	jal	ra,1c4 <putchar>
    1300:	00c12703          	lw	a4,12(sp)
    1304:	f8e412e3          	bne	s0,a4,1288 <main+0x360>
    1308:	e31ff06f          	j	1138 <main+0x210>
    130c:	00000597          	auipc	a1,0x0
    1310:	4b858593          	addi	a1,a1,1208 # 17c4 <CSWTCH.11+0x17c>
    1314:	00040513          	mv	a0,s0
    1318:	d00ff0ef          	jal	ra,818 <strcmp>
    131c:	08051e63          	bnez	a0,13b8 <main+0x490>
    1320:	01412503          	lw	a0,20(sp)
    1324:	00050a63          	beqz	a0,1338 <main+0x410>
    1328:	e58ff0ef          	jal	ra,980 <atoi>
    132c:	7ffff797          	auipc	a5,0x7ffff
    1330:	cd478793          	addi	a5,a5,-812 # 80000000 <io>
    1334:	00a7a623          	sw	a0,12(a5)
    1338:	7ffff797          	auipc	a5,0x7ffff
    133c:	cc878793          	addi	a5,a5,-824 # 80000000 <io>
    1340:	00c7a583          	lw	a1,12(a5)
    1344:	00000517          	auipc	a0,0x0
    1348:	48850513          	addi	a0,a0,1160 # 17cc <CSWTCH.11+0x184>
    134c:	b54ff0ef          	jal	ra,6a0 <printf>
    1350:	de9ff06f          	j	1138 <main+0x210>
    1354:	00000517          	auipc	a0,0x0
    1358:	42850513          	addi	a0,a0,1064 # 177c <CSWTCH.11+0x134>
    135c:	000f4437          	lui	s0,0xf4
    1360:	b40ff0ef          	jal	ra,6a0 <printf>
    1364:	24040513          	addi	a0,s0,576 # f4240 <_global+0xf1f63>
    1368:	aa1ff0ef          	jal	ra,e08 <usleep>
    136c:	02e00513          	li	a0,46
    1370:	e55fe0ef          	jal	ra,1c4 <putchar>
    1374:	24040513          	addi	a0,s0,576
    1378:	a91ff0ef          	jal	ra,e08 <usleep>
    137c:	02e00513          	li	a0,46
    1380:	e45fe0ef          	jal	ra,1c4 <putchar>
    1384:	24040513          	addi	a0,s0,576
    1388:	a81ff0ef          	jal	ra,e08 <usleep>
    138c:	02e00513          	li	a0,46
    1390:	e35fe0ef          	jal	ra,1c4 <putchar>
    1394:	00000517          	auipc	a0,0x0
    1398:	40450513          	addi	a0,a0,1028 # 1798 <CSWTCH.11+0x150>
    139c:	b04ff0ef          	jal	ra,6a0 <printf>
    13a0:	07812083          	lw	ra,120(sp)
    13a4:	07412403          	lw	s0,116(sp)
    13a8:	07012483          	lw	s1,112(sp)
    13ac:	00000513          	li	a0,0
    13b0:	07c10113          	addi	sp,sp,124
    13b4:	00008067          	ret
    13b8:	00000597          	auipc	a1,0x0
    13bc:	42058593          	addi	a1,a1,1056 # 17d8 <CSWTCH.11+0x190>
    13c0:	00040513          	mv	a0,s0
    13c4:	c54ff0ef          	jal	ra,818 <strcmp>
    13c8:	04051463          	bnez	a0,1410 <main+0x4e8>
    13cc:	01412503          	lw	a0,20(sp)
    13d0:	00050e63          	beqz	a0,13ec <main+0x4c4>
    13d4:	e18ff0ef          	jal	ra,9ec <xtoi>
    13d8:	01051713          	slli	a4,a0,0x10
    13dc:	7ffff797          	auipc	a5,0x7ffff
    13e0:	01075713          	srli	a4,a4,0x10
    13e4:	c2478793          	addi	a5,a5,-988 # 80000000 <io>
    13e8:	00e79523          	sh	a4,10(a5)
    13ec:	7ffff797          	auipc	a5,0x7ffff
    13f0:	c1478793          	addi	a5,a5,-1004 # 80000000 <io>
    13f4:	00a7d583          	lhu	a1,10(a5)
    13f8:	00000517          	auipc	a0,0x0
    13fc:	3e850513          	addi	a0,a0,1000 # 17e0 <CSWTCH.11+0x198>
    1400:	01059593          	slli	a1,a1,0x10
    1404:	0105d593          	srli	a1,a1,0x10
    1408:	a98ff0ef          	jal	ra,6a0 <printf>
    140c:	d2dff06f          	j	1138 <main+0x210>
    1410:	00000597          	auipc	a1,0x0
    1414:	3dc58593          	addi	a1,a1,988 # 17ec <CSWTCH.11+0x1a4>
    1418:	00040513          	mv	a0,s0
    141c:	bfcff0ef          	jal	ra,818 <strcmp>
    1420:	02051c63          	bnez	a0,1458 <main+0x530>
    1424:	01412503          	lw	a0,20(sp)
    1428:	d58ff0ef          	jal	ra,980 <atoi>
    142c:	00050413          	mv	s0,a0
    1430:	01812503          	lw	a0,24(sp)
    1434:	d4cff0ef          	jal	ra,980 <atoi>
    1438:	00050593          	mv	a1,a0
    143c:	00040513          	mv	a0,s0
    1440:	e44ff0ef          	jal	ra,a84 <__mulsi3>
    1444:	00050593          	mv	a1,a0
    1448:	00000517          	auipc	a0,0x0
    144c:	3a850513          	addi	a0,a0,936 # 17f0 <CSWTCH.11+0x1a8>
    1450:	a50ff0ef          	jal	ra,6a0 <printf>
    1454:	ce5ff06f          	j	1138 <main+0x210>
    1458:	00000597          	auipc	a1,0x0
    145c:	3a458593          	addi	a1,a1,932 # 17fc <CSWTCH.11+0x1b4>
    1460:	00040513          	mv	a0,s0
    1464:	bb4ff0ef          	jal	ra,818 <strcmp>
    1468:	06050263          	beqz	a0,14cc <main+0x5a4>
    146c:	00000597          	auipc	a1,0x0
    1470:	3a858593          	addi	a1,a1,936 # 1814 <CSWTCH.11+0x1cc>
    1474:	00040513          	mv	a0,s0
    1478:	ba0ff0ef          	jal	ra,818 <strcmp>
    147c:	08051e63          	bnez	a0,1518 <main+0x5f0>
    1480:	01412503          	lw	a0,20(sp)
    1484:	cfcff0ef          	jal	ra,980 <atoi>
    1488:	00050413          	mv	s0,a0
    148c:	01812503          	lw	a0,24(sp)
    1490:	cf0ff0ef          	jal	ra,980 <atoi>
    1494:	00050493          	mv	s1,a0
    1498:	01c12503          	lw	a0,28(sp)
    149c:	ce4ff0ef          	jal	ra,980 <atoi>
    14a0:	01051613          	slli	a2,a0,0x10
    14a4:	01049593          	slli	a1,s1,0x10
    14a8:	41065613          	srai	a2,a2,0x10
    14ac:	4105d593          	srai	a1,a1,0x10
    14b0:	00040513          	mv	a0,s0
    14b4:	d90ff0ef          	jal	ra,a44 <mac>
    14b8:	00050593          	mv	a1,a0
    14bc:	00000517          	auipc	a0,0x0
    14c0:	35c50513          	addi	a0,a0,860 # 1818 <CSWTCH.11+0x1d0>
    14c4:	9dcff0ef          	jal	ra,6a0 <printf>
    14c8:	c71ff06f          	j	1138 <main+0x210>
    14cc:	01412503          	lw	a0,20(sp)
    14d0:	cb0ff0ef          	jal	ra,980 <atoi>
    14d4:	00050413          	mv	s0,a0
    14d8:	01812503          	lw	a0,24(sp)
    14dc:	ca4ff0ef          	jal	ra,980 <atoi>
    14e0:	00050493          	mv	s1,a0
    14e4:	00050593          	mv	a1,a0
    14e8:	00040513          	mv	a0,s0
    14ec:	891ff0ef          	jal	ra,d7c <__modsi3>
    14f0:	00a12223          	sw	a0,4(sp)
    14f4:	00048593          	mv	a1,s1
    14f8:	00040513          	mv	a0,s0
    14fc:	fecff0ef          	jal	ra,ce8 <__divsi3>
    1500:	00412603          	lw	a2,4(sp)
    1504:	00050593          	mv	a1,a0
    1508:	00000517          	auipc	a0,0x0
    150c:	2f850513          	addi	a0,a0,760 # 1800 <CSWTCH.11+0x1b8>
    1510:	990ff0ef          	jal	ra,6a0 <printf>
    1514:	c25ff06f          	j	1138 <main+0x210>
    1518:	00000597          	auipc	a1,0x0
    151c:	30c58593          	addi	a1,a1,780 # 1824 <CSWTCH.11+0x1dc>
    1520:	00040513          	mv	a0,s0
    1524:	af4ff0ef          	jal	ra,818 <strcmp>
    1528:	02050063          	beqz	a0,1548 <main+0x620>
    152c:	00044783          	lbu	a5,0(s0)
    1530:	c00784e3          	beqz	a5,1138 <main+0x210>
    1534:	00000517          	auipc	a0,0x0
    1538:	00040593          	mv	a1,s0
    153c:	30c50513          	addi	a0,a0,780 # 1840 <CSWTCH.11+0x1f8>
    1540:	960ff0ef          	jal	ra,6a0 <printf>
    1544:	bf5ff06f          	j	1138 <main+0x210>
    1548:	01412503          	lw	a0,20(sp)
    154c:	ca0ff0ef          	jal	ra,9ec <xtoi>
    1550:	00050593          	mv	a1,a0
    1554:	00000517          	auipc	a0,0x0
    1558:	4015d613          	srai	a2,a1,0x1
    155c:	2d850513          	addi	a0,a0,728 # 182c <CSWTCH.11+0x1e4>
    1560:	940ff0ef          	jal	ra,6a0 <printf>
    1564:	bd5ff06f          	j	1138 <main+0x210>
